target datalayout = "e-m:e-p270:32:32-p271:32:32-p272:64:64-i64:64-i128:128-f80:128-n8:16:32:64-S128"
target triple = "x86_64-pc-linux-gnu"

%"class.gmx::NoseHooverGroup" = type { float, float, float, i32, float, %"class.std::vector", %"class.std::vector", double, %"class.std::vector", float, float }
%"class.std::vector" = type { %"struct.std::_Vector_base" }
%"struct.std::_Vector_base" = type { %"struct.std::_Vector_base<float, std::allocator<float>>::_Vector_impl" }
%"struct.std::_Vector_base<float, std::allocator<float>>::_Vector_impl" = type { %"struct.std::_Vector_base<float, std::allocator<float>>::_Vector_impl_data" }
%"struct.std::_Vector_base<float, std::allocator<float>>::_Vector_impl_data" = type { ptr, ptr, ptr }

; Function Attrs: mustprogress nounwind uwtable
define linkonce_odr noundef float @_ZN3gmx6squareIfEET_S1_(float noundef %0) #0 comdat {
  %2 = alloca float, align 4
  store float %0, ptr %2, align 4, !tbaa !65
  %3 = load float, ptr %2, align 4, !tbaa !65
  %4 = load float, ptr %2, align 4, !tbaa !65
  %5 = fmul float %3, %4
  ret float %5
}

; Function Attrs: mustprogress nounwind uwtable
define linkonce_odr noundef nonnull align 4 dereferenceable(4) ptr @_ZNSt6vectorIfSaIfEEixEm(ptr noundef nonnull align 8 dereferenceable(24) %0, i64 noundef %1) #0 comdat align 2 {
  %3 = alloca ptr, align 8
  %4 = alloca i64, align 8
  store ptr %0, ptr %3, align 8, !tbaa !85
  store i64 %1, ptr %4, align 8, !tbaa !39
  %5 = load ptr, ptr %3, align 8
  %6 = getelementptr inbounds nuw %"struct.std::_Vector_base", ptr %5, i32 0, i32 0
  %7 = getelementptr inbounds nuw %"struct.std::_Vector_base<float, std::allocator<float>>::_Vector_impl_data", ptr %6, i32 0, i32 0
  %8 = load ptr, ptr %7, align 8, !tbaa !90
  %9 = load i64, ptr %4, align 8, !tbaa !39
  %10 = getelementptr inbounds nuw float, ptr %8, i64 %9
  ret ptr %10
}

; Function Attrs: mustprogress uwtable
define void @_ZN3gmx15NoseHooverGroup17calculateIntegralEv(ptr noundef nonnull align 8 dereferenceable(112) %0) #1 align 2 {
  %2 = alloca ptr, align 8
  %3 = alloca i32, align 4
  %4 = alloca float, align 4
  store ptr %0, ptr %2, align 8, !tbaa !34
  %5 = load ptr, ptr %2, align 8
  %6 = getelementptr inbounds nuw %"class.gmx::NoseHooverGroup", ptr %5, i32 0, i32 7
  store double 0.000000e+00, ptr %6, align 8, !tbaa !78
  call void @llvm.lifetime.start.p0(i64 4, ptr %3) #21
  store i32 0, ptr %3, align 4, !tbaa !64
  br label %7

7:                                                ; preds = %53, %1
  %8 = load i32, ptr %3, align 4, !tbaa !64
  %9 = getelementptr inbounds nuw %"class.gmx::NoseHooverGroup", ptr %5, i32 0, i32 3
  %10 = load i32, ptr %9, align 4, !tbaa !76
  %11 = icmp slt i32 %8, %10
  br i1 %11, label %13, label %12

12:                                               ; preds = %7
  call void @llvm.lifetime.end.p0(i64 4, ptr %3) #21
  br label %56

13:                                               ; preds = %7
  call void @llvm.lifetime.start.p0(i64 4, ptr %4) #21
  %14 = load i32, ptr %3, align 4, !tbaa !64
  %15 = icmp eq i32 %14, 0
  br i1 %15, label %16, label %19

16:                                               ; preds = %13
  %17 = getelementptr inbounds nuw %"class.gmx::NoseHooverGroup", ptr %5, i32 0, i32 2
  %18 = load float, ptr %17, align 8, !tbaa !75
  br label %20

19:                                               ; preds = %13
  br label %20

20:                                               ; preds = %19, %16
  %21 = phi float [ %18, %16 ], [ 1.000000e+00, %19 ]
  store float %21, ptr %4, align 4, !tbaa !65
  %22 = getelementptr inbounds nuw %"class.gmx::NoseHooverGroup", ptr %5, i32 0, i32 6
  %23 = load i32, ptr %3, align 4, !tbaa !64
  %24 = sext i32 %23 to i64
  %25 = call noundef nonnull align 4 dereferenceable(4) ptr @_ZNSt6vectorIfSaIfEEixEm(ptr noundef nonnull align 8 dereferenceable(24) %22, i64 noundef %24) #21
  %26 = load float, ptr %25, align 4, !tbaa !65
  %27 = call noundef float @_ZN3gmx6squareIfEET_S1_(float noundef %26)
  %28 = fpext float %27 to double
  %29 = fmul double 5.000000e-01, %28
  %30 = getelementptr inbounds nuw %"class.gmx::NoseHooverGroup", ptr %5, i32 0, i32 8
  %31 = load i32, ptr %3, align 4, !tbaa !64
  %32 = sext i32 %31 to i64
  %33 = call noundef nonnull align 4 dereferenceable(4) ptr @_ZNSt6vectorIfSaIfEEixEm(ptr noundef nonnull align 8 dereferenceable(24) %30, i64 noundef %32) #21
  %34 = load float, ptr %33, align 4, !tbaa !65
  %35 = fpext float %34 to double
  %36 = fdiv double %29, %35
  %37 = load float, ptr %4, align 4, !tbaa !65
  %38 = getelementptr inbounds nuw %"class.gmx::NoseHooverGroup", ptr %5, i32 0, i32 5
  %39 = load i32, ptr %3, align 4, !tbaa !64
  %40 = sext i32 %39 to i64
  %41 = call noundef nonnull align 4 dereferenceable(4) ptr @_ZNSt6vectorIfSaIfEEixEm(ptr noundef nonnull align 8 dereferenceable(24) %38, i64 noundef %40) #21
  %42 = load float, ptr %41, align 4, !tbaa !65
  %43 = fmul float %37, %42
  %44 = fpext float %43 to double
  %45 = fmul double %44, 0x3F81072C483AF26D
  %46 = getelementptr inbounds nuw %"class.gmx::NoseHooverGroup", ptr %5, i32 0, i32 0
  %47 = load float, ptr %46, align 8, !tbaa !68
  %48 = fpext float %47 to double
  %49 = call double @llvm.fmuladd.f64(double %45, double %48, double %36)
  %50 = getelementptr inbounds nuw %"class.gmx::NoseHooverGroup", ptr %5, i32 0, i32 7
  %51 = load double, ptr %50, align 8, !tbaa !78
  %52 = fadd double %51, %49
  store double %52, ptr %50, align 8, !tbaa !78
  call void @llvm.lifetime.end.p0(i64 4, ptr %4) #21
  br label %53

53:                                               ; preds = %20
  %54 = load i32, ptr %3, align 4, !tbaa !64
  %55 = add nsw i32 %54, 1
  store i32 %55, ptr %3, align 4, !tbaa !64
  br label %7, !llvm.loop !680

56:                                               ; preds = %12
  %57 = getelementptr inbounds nuw %"class.gmx::NoseHooverGroup", ptr %5, i32 0, i32 9
  %58 = load float, ptr %57, align 8, !tbaa !79
  %59 = getelementptr inbounds nuw %"class.gmx::NoseHooverGroup", ptr %5, i32 0, i32 10
  store float %58, ptr %59, align 4, !tbaa !80
  ret void
}