; Function Attrs: mustprogress nofree norecurse nosync nounwind memory(read, argmem: readwrite, inaccessiblemem: none) uwtable
define void @_ZN3gmx15NoseHooverGroup17calculateIntegralEv(ptr noundef nonnull align 8 captures(none) dereferenceable(112) initializes((72, 80)) %0) local_unnamed_addr #22 align 2 {
  %2 = getelementptr inbounds nuw i8, ptr %0, i64 72
  store double 0.000000e+00, ptr %2, align 8, !tbaa !35
  %3 = getelementptr inbounds nuw i8, ptr %0, i64 12
  %4 = load i32, ptr %3, align 4, !tbaa !44
  %5 = icmp sgt i32 %4, 0
  br i1 %5, label %.lr.ph, label %16

.lr.ph:                                           ; preds = %1
  %6 = getelementptr inbounds nuw i8, ptr %0, i64 8
  %7 = load float, ptr %6, align 8
  %8 = getelementptr inbounds nuw i8, ptr %0, i64 48
  %9 = load ptr, ptr %8, align 8, !tbaa !45
  %10 = getelementptr inbounds nuw i8, ptr %0, i64 80
  %11 = load ptr, ptr %10, align 8, !tbaa !45
  %12 = getelementptr inbounds nuw i8, ptr %0, i64 24
  %13 = load ptr, ptr %12, align 8, !tbaa !45
  %14 = load float, ptr %0, align 8, !tbaa !46
  %15 = fpext float %14 to double
  %wide.trip.count = zext nneg i32 %4 to i64
  br label %20

._crit_edge:                                      ; preds = %20
  store double %39, ptr %2, align 8, !tbaa !35
  br label %16

16:                                               ; preds = %._crit_edge, %1
  %17 = getelementptr inbounds nuw i8, ptr %0, i64 104
  %18 = load float, ptr %17, align 8, !tbaa !50
  %19 = getelementptr inbounds nuw i8, ptr %0, i64 108
  store float %18, ptr %19, align 4, !tbaa !51
  ret void

20:                                               ; preds = %.lr.ph, %20
  %indvars.iv = phi i64 [ 0, %.lr.ph ], [ %indvars.iv.next, %20 ]
  %21 = phi double [ 0.000000e+00, %.lr.ph ], [ %39, %20 ]
  %22 = icmp eq i64 %indvars.iv, 0
  %23 = select i1 %22, float %7, float 1.000000e+00
  %24 = getelementptr inbounds nuw float, ptr %9, i64 %indvars.iv
  %25 = load float, ptr %24, align 4, !tbaa !47
  %26 = fmul float %25, %25
  %27 = fpext float %26 to double
  %28 = fmul double %27, 5.000000e-01
  %29 = getelementptr inbounds nuw float, ptr %11, i64 %indvars.iv
  %30 = load float, ptr %29, align 4, !tbaa !47
  %31 = fpext float %30 to double
  %32 = fdiv double %28, %31
  %33 = getelementptr inbounds nuw float, ptr %13, i64 %indvars.iv
  %34 = load float, ptr %33, align 4, !tbaa !47
  %35 = fmul float %23, %34
  %36 = fpext float %35 to double
  %37 = fmul double %36, 0x3F81072C483AF26D
  %38 = tail call double @llvm.fmuladd.f64(double %37, double %15, double %32)
  %39 = fadd double %21, %38
  %indvars.iv.next = add nuw nsw i64 %indvars.iv, 1
  %exitcond.not = icmp eq i64 %indvars.iv.next, %wide.trip.count
  br i1 %exitcond.not, label %._crit_edge, label %20, !llvm.loop !48
}